#include <math.h>
#include <stdio.h>
#include <stdlib.h>
#include <string.h>


int main()
{
	int num[100],n,i,k,m;
	scanf("%d %d",&n,&m);	
	for(i=0;i<=(n-1);i++)
	{
		scanf("%d",&num[i]);
	}
	int*p=num;
	while(m!=0)
	{
		int t=*(num+n-1);
	    for(p=num+n-1;p>num;p--)
		    *p=*(p-1);
	    *p=t;
		m--;
	}
	for(k=0;k<n;k++)
	{
		if(k==0)printf("%d",num[k]);
		else printf(" %d",num[k]);
	}
	return 0;
}

